target datalayout = "e-m:e-p270:32:32-p271:32:32-p272:64:64-i64:64-i128:128-f80:128-n8:16:32:64-S128"
target triple = "x86_64-pc-linux-gnu"

%"class.net::QuicBandwidth" = type { i64 }
%"class.net::QuicTime::Delta" = type { %"class.base::TimeDelta", i64 }
%"class.base::TimeDelta" = type { i64 }

; Function Attrs: mustprogress nounwind uwtable
define linkonce_odr void @_ZN4base9TimeDeltaC2Ev(ptr noundef nonnull align 8 dereferenceable(8) %0) unnamed_addr #1 comdat align 2 {
  %2 = alloca ptr, align 8
  store ptr %0, ptr %2, align 8, !tbaa !36
  %3 = load ptr, ptr %2, align 8
  %4 = getelementptr inbounds nuw %"class.base::TimeDelta", ptr %3, i32 0, i32 0
  store i64 0, ptr %4, align 8, !tbaa !38
  ret void
}

; Function Attrs: inlinehint mustprogress uwtable
define linkonce_odr void @_ZN3net8QuicTime5DeltaC2El(ptr noundef nonnull align 8 dereferenceable(16) %0, i64 noundef %1) unnamed_addr #6 comdat align 2 {
  %3 = alloca ptr, align 8
  %4 = alloca i64, align 8
  store ptr %0, ptr %3, align 8, !tbaa !16
  store i64 %1, ptr %4, align 8, !tbaa !3
  %5 = load ptr, ptr %3, align 8
  %6 = getelementptr inbounds nuw %"class.net::QuicTime::Delta", ptr %5, i32 0, i32 0
  call void @_ZN4base9TimeDeltaC2Ev(ptr noundef nonnull align 8 dereferenceable(8) %6)
  %7 = getelementptr inbounds nuw %"class.net::QuicTime::Delta", ptr %5, i32 0, i32 1
  %8 = load i64, ptr %4, align 8, !tbaa !3
  store i64 %8, ptr %7, align 8, !tbaa !18
  ret void
}

; Function Attrs: inlinehint mustprogress uwtable
define linkonce_odr { i64, i64 } @_ZN3net8QuicTime5Delta16FromMicrosecondsEl(i64 noundef %0) #6 comdat align 2 {
  %2 = alloca %"class.net::QuicTime::Delta", align 8
  %3 = alloca i64, align 8
  store i64 %0, ptr %3, align 8, !tbaa !3
  %4 = load i64, ptr %3, align 8, !tbaa !3
  call void @_ZN3net8QuicTime5DeltaC2El(ptr noundef nonnull align 8 dereferenceable(16) %2, i64 noundef %4)
  %5 = load { i64, i64 }, ptr %2, align 8
  ret { i64, i64 } %5
}

; Function Attrs: inlinehint mustprogress uwtable
define linkonce_odr { i64, i64 } @_ZN3net8QuicTime5Delta4ZeroEv() #6 comdat align 2 {
  %1 = alloca %"class.net::QuicTime::Delta", align 8
  call void @_ZN3net8QuicTime5DeltaC2El(ptr noundef nonnull align 8 dereferenceable(16) %1, i64 noundef 0)
  %2 = load { i64, i64 }, ptr %1, align 8
  ret { i64, i64 } %2
}

; Function Attrs: mustprogress uwtable
define { i64, i64 } @_ZNK3net13QuicBandwidth12TransferTimeEm(ptr noundef nonnull align 8 dereferenceable(8) %0, i64 noundef %1) #0 align 2 {
  %3 = alloca %"class.net::QuicTime::Delta", align 8
  %4 = alloca ptr, align 8
  %5 = alloca i64, align 8
  store ptr %0, ptr %4, align 8, !tbaa !21
  store i64 %1, ptr %5, align 8, !tbaa !3
  %6 = load ptr, ptr %4, align 8
  %7 = getelementptr inbounds nuw %"class.net::QuicBandwidth", ptr %6, i32 0, i32 0
  %8 = load i64, ptr %7, align 8, !tbaa !23
  %9 = icmp eq i64 %8, 0
  br i1 %9, label %10, label %16

10:                                               ; preds = %2
  %11 = call { i64, i64 } @_ZN3net8QuicTime5Delta4ZeroEv()
  %12 = getelementptr inbounds nuw { i64, i64 }, ptr %3, i32 0, i32 0
  %13 = extractvalue { i64, i64 } %11, 0
  store i64 %13, ptr %12, align 8
  %14 = getelementptr inbounds nuw { i64, i64 }, ptr %3, i32 0, i32 1
  %15 = extractvalue { i64, i64 } %11, 1
  store i64 %15, ptr %14, align 8
  br label %28

16:                                               ; preds = %2
  %17 = load i64, ptr %5, align 8, !tbaa !3
  %18 = mul i64 %17, 8
  %19 = mul i64 %18, 1000000
  %20 = getelementptr inbounds nuw %"class.net::QuicBandwidth", ptr %6, i32 0, i32 0
  %21 = load i64, ptr %20, align 8, !tbaa !23
  %22 = udiv i64 %19, %21
  %23 = call { i64, i64 } @_ZN3net8QuicTime5Delta16FromMicrosecondsEl(i64 noundef %22)
  %24 = getelementptr inbounds nuw { i64, i64 }, ptr %3, i32 0, i32 0
  %25 = extractvalue { i64, i64 } %23, 0
  store i64 %25, ptr %24, align 8
  %26 = getelementptr inbounds nuw { i64, i64 }, ptr %3, i32 0, i32 1
  %27 = extractvalue { i64, i64 } %23, 1
  store i64 %27, ptr %26, align 8
  br label %28

28:                                               ; preds = %16, %10
  %29 = load { i64, i64 }, ptr %3, align 8
  ret { i64, i64 } %29
}