; Function Attrs: mustprogress nofree norecurse nosync nounwind willreturn memory(argmem: read) uwtable
define { i64, i64 } @_ZNK3net13QuicBandwidth12TransferTimeEm(ptr noundef nonnull readonly align 8 captures(none) dereferenceable(8) %0, i64 noundef %1) local_unnamed_addr #4 align 2 {
  %3 = load i64, ptr %0, align 8, !tbaa !3
  %4 = icmp eq i64 %3, 0
  br i1 %4, label %8, label %5

5:                                                ; preds = %2
  %6 = mul i64 %1, 8000000
  %7 = udiv i64 %6, %3
  %.fca.1.insert.i = insertvalue { i64, i64 } { i64 0, i64 poison }, i64 %7, 1
  br label %8

8:                                                ; preds = %2, %5
  %.pn = phi { i64, i64 } [ %.fca.1.insert.i, %5 ], [ zeroinitializer, %2 ]
  ret { i64, i64 } %.pn
}